; ModuleID = '19/24.c'
source_filename = "19/24.c"
target datalayout = "e-m:e-p270:32:32-p271:32:32-p272:64:64-i64:64-f80:128-n8:16:32:64-S128"
target triple = "x86_64-pc-linux-gnu"

@.str = private unnamed_addr constant [3 x i8] c"%c\00", align 1

; Function Attrs: noinline nounwind uwtable
define dso_local i32 @main() #0 {
  %1 = alloca i32, align 4
  %2 = alloca [100 x i8], align 16
  %3 = alloca [100 x i8], align 16
  %4 = alloca [100 x i8], align 16
  %5 = alloca i32, align 4
  %6 = alloca i32, align 4
  %7 = alloca i32, align 4
  %8 = alloca i32, align 4
  %9 = alloca i32, align 4
  %10 = alloca i32, align 4
  %11 = alloca i32, align 4
  %12 = alloca i32, align 4
  %13 = alloca i32, align 4
  store i32 0, i32* %1, align 4
  %14 = getelementptr inbounds [100 x i8], [100 x i8]* %2, i64 0, i64 0
  %15 = call i32 (i8*, ...) bitcast (i32 (...)* @gets to i32 (i8*, ...)*)(i8* %14)
  %16 = getelementptr inbounds [100 x i8], [100 x i8]* %3, i64 0, i64 0
  %17 = call i32 (i8*, ...) bitcast (i32 (...)* @gets to i32 (i8*, ...)*)(i8* %16)
  %18 = getelementptr inbounds [100 x i8], [100 x i8]* %4, i64 0, i64 0
  %19 = call i32 (i8*, ...) bitcast (i32 (...)* @gets to i32 (i8*, ...)*)(i8* %18)
  %20 = getelementptr inbounds [100 x i8], [100 x i8]* %2, i64 0, i64 0
  %21 = call i64 @strlen(i8* %20) #3
  %22 = trunc i64 %21 to i32
  store i32 %22, i32* %6, align 4
  %23 = getelementptr inbounds [100 x i8], [100 x i8]* %3, i64 0, i64 0
  %24 = call i64 @strlen(i8* %23) #3
  %25 = trunc i64 %24 to i32
  store i32 %25, i32* %7, align 4
  %26 = getelementptr inbounds [100 x i8], [100 x i8]* %4, i64 0, i64 0
  %27 = call i64 @strlen(i8* %26) #3
  %28 = trunc i64 %27 to i32
  store i32 %28, i32* %8, align 4
  store i32 0, i32* %9, align 4
  store i32 0, i32* %5, align 4
  br label %29

29:                                               ; preds = %125, %0
  %30 = load i32, i32* %5, align 4
  %31 = load i32, i32* %6, align 4
  %32 = icmp slt i32 %30, %31
  br i1 %32, label %33, label %128

33:                                               ; preds = %29
  %34 = load i32, i32* %5, align 4
  %35 = sext i32 %34 to i64
  %36 = getelementptr inbounds [100 x i8], [100 x i8]* %2, i64 0, i64 %35
  %37 = load i8, i8* %36, align 1
  %38 = sext i8 %37 to i32
  %39 = getelementptr inbounds [100 x i8], [100 x i8]* %3, i64 0, i64 0
  %40 = load i8, i8* %39, align 16
  %41 = sext i8 %40 to i32
  %42 = icmp eq i32 %38, %41
  br i1 %42, label %43, label %94

43:                                               ; preds = %33
  %44 = load i32, i32* %5, align 4
  %45 = sub nsw i32 %44, 1
  %46 = sext i32 %45 to i64
  %47 = getelementptr inbounds [100 x i8], [100 x i8]* %2, i64 0, i64 %46
  %48 = load i8, i8* %47, align 1
  %49 = sext i8 %48 to i32
  %50 = icmp eq i32 %49, 32
  br i1 %50, label %54, label %51

51:                                               ; preds = %43
  %52 = load i32, i32* %5, align 4
  %53 = icmp eq i32 %52, 0
  br i1 %53, label %54, label %94

54:                                               ; preds = %51, %43
  %55 = load i32, i32* %5, align 4
  %56 = load i32, i32* %7, align 4
  %57 = add nsw i32 %55, %56
  %58 = sext i32 %57 to i64
  %59 = getelementptr inbounds [100 x i8], [100 x i8]* %2, i64 0, i64 %58
  %60 = load i8, i8* %59, align 1
  %61 = sext i8 %60 to i32
  %62 = icmp eq i32 %61, 32
  br i1 %62, label %68, label %63

63:                                               ; preds = %54
  %64 = load i32, i32* %5, align 4
  %65 = load i32, i32* %6, align 4
  %66 = sub nsw i32 %65, 1
  %67 = icmp eq i32 %64, %66
  br i1 %67, label %68, label %94

68:                                               ; preds = %63, %54
  store i32 1, i32* %9, align 4
  %69 = load i32, i32* %5, align 4
  store i32 %69, i32* %10, align 4
  store i32 0, i32* %11, align 4
  br label %70

70:                                               ; preds = %88, %68
  %71 = load i32, i32* %11, align 4
  %72 = load i32, i32* %7, align 4
  %73 = icmp slt i32 %71, %72
  br i1 %73, label %74, label %93

74:                                               ; preds = %70
  %75 = load i32, i32* %10, align 4
  %76 = sext i32 %75 to i64
  %77 = getelementptr inbounds [100 x i8], [100 x i8]* %2, i64 0, i64 %76
  %78 = load i8, i8* %77, align 1
  %79 = sext i8 %78 to i32
  %80 = load i32, i32* %11, align 4
  %81 = sext i32 %80 to i64
  %82 = getelementptr inbounds [100 x i8], [100 x i8]* %3, i64 0, i64 %81
  %83 = load i8, i8* %82, align 1
  %84 = sext i8 %83 to i32
  %85 = icmp ne i32 %79, %84
  br i1 %85, label %86, label %87

86:                                               ; preds = %74
  store i32 0, i32* %9, align 4
  br label %93

87:                                               ; preds = %74
  br label %88

88:                                               ; preds = %87
  %89 = load i32, i32* %10, align 4
  %90 = add nsw i32 %89, 1
  store i32 %90, i32* %10, align 4
  %91 = load i32, i32* %11, align 4
  %92 = add nsw i32 %91, 1
  store i32 %92, i32* %11, align 4
  br label %70

93:                                               ; preds = %86, %70
  br label %94

94:                                               ; preds = %93, %63, %51, %33
  %95 = load i32, i32* %9, align 4
  %96 = icmp ne i32 %95, 0
  br i1 %96, label %97, label %117

97:                                               ; preds = %94
  store i32 0, i32* %13, align 4
  br label %98

98:                                               ; preds = %109, %97
  %99 = load i32, i32* %13, align 4
  %100 = load i32, i32* %8, align 4
  %101 = icmp slt i32 %99, %100
  br i1 %101, label %102, label %112

102:                                              ; preds = %98
  %103 = load i32, i32* %13, align 4
  %104 = sext i32 %103 to i64
  %105 = getelementptr inbounds [100 x i8], [100 x i8]* %4, i64 0, i64 %104
  %106 = load i8, i8* %105, align 1
  %107 = sext i8 %106 to i32
  %108 = call i32 (i8*, ...) @printf(i8* getelementptr inbounds ([3 x i8], [3 x i8]* @.str, i64 0, i64 0), i32 %107)
  br label %109

109:                                              ; preds = %102
  %110 = load i32, i32* %13, align 4
  %111 = add nsw i32 %110, 1
  store i32 %111, i32* %13, align 4
  br label %98

112:                                              ; preds = %98
  %113 = load i32, i32* %5, align 4
  %114 = load i32, i32* %7, align 4
  %115 = add nsw i32 %113, %114
  %116 = sub nsw i32 %115, 1
  store i32 %116, i32* %5, align 4
  store i32 0, i32* %9, align 4
  br label %124

117:                                              ; preds = %94
  %118 = load i32, i32* %5, align 4
  %119 = sext i32 %118 to i64
  %120 = getelementptr inbounds [100 x i8], [100 x i8]* %2, i64 0, i64 %119
  %121 = load i8, i8* %120, align 1
  %122 = sext i8 %121 to i32
  %123 = call i32 (i8*, ...) @printf(i8* getelementptr inbounds ([3 x i8], [3 x i8]* @.str, i64 0, i64 0), i32 %122)
  br label %124

124:                                              ; preds = %117, %112
  br label %125

125:                                              ; preds = %124
  %126 = load i32, i32* %5, align 4
  %127 = add nsw i32 %126, 1
  store i32 %127, i32* %5, align 4
  br label %29

128:                                              ; preds = %29
  ret i32 0
}

declare dso_local i32 @gets(...) #1

; Function Attrs: nounwind readonly
declare dso_local i64 @strlen(i8*) #2

declare dso_local i32 @printf(i8*, ...) #1


!llvm.module.flags = !{!0}
!llvm.ident = !{!1}

!0 = !{i32 1, !"wchar_size", i32 4}
!1 = !{!"clang version 10.0.0-4ubuntu1 "}
